target datalayout = "e-m:e-p270:32:32-p271:32:32-p272:64:64-i64:64-i128:128-f80:128-n8:16:32:64-S128"
target triple = "x86_64-pc-linux-gnu"

%struct._zend_alloc_globals = type { ptr }
%struct._zval_struct = type { %union._zend_value, %union.anon, %union.anon.3 }
%union._zend_value = type { i64 }
%union.anon = type { i32 }
%union.anon.3 = type { i32 }
%struct._zend_mm_heap = type { i32, ptr, i64, i64, [30 x ptr], i64, i64, i64, i32, ptr, ptr, ptr, i32, i32, i32, double, i32, i32, %struct.anon, ptr }
%struct.anon = type { ptr, ptr, ptr }

@alloc_globals = internal global %struct._zend_alloc_globals zeroinitializer, align 8
@.str.5 = private unnamed_addr constant [73 x i8] c"Allowed memory size of %zu bytes exhausted (tried to allocate %zu bytes)\00", align 1

; Function Attrs: nounwind allocsize(1) uwtable
define ptr @__zend_realloc(ptr noundef %0, i64 noundef %1) #6 {
  %3 = alloca ptr, align 8
  %4 = alloca i64, align 8
  store ptr %0, ptr %3, align 8
  store i64 %1, ptr %4, align 8
  %5 = load ptr, ptr %3, align 8
  %6 = load i64, ptr %4, align 8
  %7 = call ptr @realloc(ptr noundef %5, i64 noundef %6) #26
  store ptr %7, ptr %3, align 8
  %8 = load ptr, ptr %3, align 8
  %9 = icmp ne ptr %8, null
  br i1 %9, label %14, label %10

10:                                               ; preds = %2
  %11 = load i64, ptr %4, align 8
  %12 = icmp ne i64 %11, 0
  %13 = xor i1 %12, true
  br label %14

14:                                               ; preds = %10, %2
  %15 = phi i1 [ true, %2 ], [ %13, %10 ]
  %16 = xor i1 %15, true
  %17 = xor i1 %16, true
  %18 = zext i1 %17 to i32
  %19 = sext i32 %18 to i64
  %20 = icmp ne i64 %19, 0
  br i1 %20, label %21, label %23

21:                                               ; preds = %14
  %22 = load ptr, ptr %3, align 8
  ret ptr %22

23:                                               ; preds = %14
  call void @zend_out_of_memory() #19
  unreachable
}

; Function Attrs: nounwind uwtable
define internal ptr @tracked_realloc(ptr noundef %0, i64 noundef %1) #0 {
  %3 = alloca ptr, align 8
  %4 = alloca ptr, align 8
  %5 = alloca i64, align 8
  %6 = alloca ptr, align 8
  %7 = alloca ptr, align 8
  %8 = alloca ptr, align 8
  %9 = alloca i64, align 8
  %10 = alloca %struct._zval_struct, align 8
  %11 = alloca i64, align 8
  %12 = alloca ptr, align 8
  %13 = alloca ptr, align 8
  %14 = alloca i64, align 8
  %15 = alloca ptr, align 8
  %16 = alloca i64, align 8
  %17 = alloca ptr, align 8
  %18 = alloca ptr, align 8
  %19 = alloca i64, align 8
  store ptr %0, ptr %15, align 8
  store i64 %1, ptr %16, align 8
  %20 = load ptr, ptr @alloc_globals, align 8
  store ptr %20, ptr %17, align 8
  store ptr null, ptr %18, align 8
  store i64 0, ptr %19, align 8
  %21 = load ptr, ptr %15, align 8
  %22 = icmp ne ptr %21, null
  br i1 %22, label %23, label %43

23:                                               ; preds = %2
  %24 = load ptr, ptr %17, align 8
  %25 = load ptr, ptr %15, align 8
  store ptr %24, ptr %3, align 8
  store ptr %25, ptr %4, align 8
  %26 = load ptr, ptr %4, align 8
  %27 = ptrtoint ptr %26 to i64
  %28 = lshr i64 %27, 3
  store i64 %28, ptr %5, align 8
  %29 = load ptr, ptr %3, align 8
  %30 = getelementptr inbounds %struct._zend_mm_heap, ptr %29, i32 0, i32 19
  %31 = load ptr, ptr %30, align 8
  %32 = load i64, ptr %5, align 8
  %33 = call ptr @zend_hash_index_find(ptr noundef %31, i64 noundef %32) #20
  store ptr %33, ptr %6, align 8
  %34 = load ptr, ptr %6, align 8
  %35 = icmp ne ptr %34, null
  br i1 %35, label %36, label %37

36:                                               ; preds = %23
  br label %37

37:                                               ; preds = %36, %23
  %38 = phi i1 [ false, %23 ], [ true, %36 ]
  call void @llvm.assume(i1 %38)
  %39 = load ptr, ptr %6, align 8
  store ptr %39, ptr %18, align 8
  %40 = load ptr, ptr %18, align 8
  %41 = getelementptr inbounds %struct._zval_struct, ptr %40, i32 0, i32 0
  %42 = load i64, ptr %41, align 8
  store i64 %42, ptr %19, align 8
  br label %43

43:                                               ; preds = %37, %2
  %44 = load i64, ptr %16, align 8
  %45 = load i64, ptr %19, align 8
  %46 = icmp ugt i64 %44, %45
  br i1 %46, label %47, label %73

47:                                               ; preds = %43
  %48 = load ptr, ptr %17, align 8
  %49 = load i64, ptr %16, align 8
  %50 = load i64, ptr %19, align 8
  %51 = sub i64 %49, %50
  store ptr %48, ptr %13, align 8
  store i64 %51, ptr %14, align 8
  %52 = load i64, ptr %14, align 8
  %53 = load ptr, ptr %13, align 8
  %54 = getelementptr inbounds %struct._zend_mm_heap, ptr %53, i32 0, i32 7
  %55 = load i64, ptr %54, align 8
  %56 = load ptr, ptr %13, align 8
  %57 = getelementptr inbounds %struct._zend_mm_heap, ptr %56, i32 0, i32 2
  %58 = load i64, ptr %57, align 8
  %59 = sub i64 %55, %58
  %60 = icmp ugt i64 %52, %59
  br i1 %60, label %61, label %72

61:                                               ; preds = %47
  %62 = load ptr, ptr %13, align 8
  %63 = getelementptr inbounds %struct._zend_mm_heap, ptr %62, i32 0, i32 8
  %64 = load i32, ptr %63, align 8
  %65 = icmp ne i32 %64, 0
  br i1 %65, label %72, label %66

66:                                               ; preds = %61
  %67 = load ptr, ptr %13, align 8
  %68 = load ptr, ptr %13, align 8
  %69 = getelementptr inbounds %struct._zend_mm_heap, ptr %68, i32 0, i32 7
  %70 = load i64, ptr %69, align 8
  %71 = load i64, ptr %14, align 8
  call void @zend_mm_safe_error(ptr noundef %67, ptr noundef @.str.5, i64 noundef %70, i64 noundef %71) #19
  unreachable

72:                                               ; preds = %61, %47
  br label %73

73:                                               ; preds = %72, %43
  %74 = load ptr, ptr %18, align 8
  %75 = icmp ne ptr %74, null
  br i1 %75, label %76, label %81

76:                                               ; preds = %73
  %77 = load ptr, ptr %17, align 8
  %78 = getelementptr inbounds %struct._zend_mm_heap, ptr %77, i32 0, i32 19
  %79 = load ptr, ptr %78, align 8
  %80 = load ptr, ptr %18, align 8
  call void @zend_hash_del_bucket(ptr noundef %79, ptr noundef %80)
  br label %81

81:                                               ; preds = %76, %73
  %82 = load ptr, ptr %15, align 8
  %83 = load i64, ptr %16, align 8
  %84 = call ptr @__zend_realloc(ptr noundef %82, i64 noundef %83) #23
  store ptr %84, ptr %15, align 8
  %85 = load ptr, ptr %17, align 8
  %86 = load ptr, ptr %15, align 8
  %87 = load i64, ptr %16, align 8
  store ptr %85, ptr %7, align 8
  store ptr %86, ptr %8, align 8
  store i64 %87, ptr %9, align 8
  %88 = load ptr, ptr %8, align 8
  %89 = ptrtoint ptr %88 to i64
  %90 = lshr i64 %89, 3
  store i64 %90, ptr %11, align 8
  %91 = load i64, ptr %11, align 8
  %92 = shl i64 %91, 3
  %93 = inttoptr i64 %92 to ptr
  %94 = load ptr, ptr %8, align 8
  %95 = icmp eq ptr %93, %94
  call void @llvm.assume(i1 %95)
  store ptr %10, ptr %12, align 8
  %96 = load i64, ptr %9, align 8
  %97 = load ptr, ptr %12, align 8
  store i64 %96, ptr %97, align 8
  %98 = load ptr, ptr %12, align 8
  %99 = getelementptr inbounds %struct._zval_struct, ptr %98, i32 0, i32 1
  store i32 4, ptr %99, align 8
  %100 = load ptr, ptr %7, align 8
  %101 = getelementptr inbounds %struct._zend_mm_heap, ptr %100, i32 0, i32 19
  %102 = load ptr, ptr %101, align 8
  %103 = load i64, ptr %11, align 8
  %104 = call ptr @zend_hash_index_add_new(ptr noundef %102, i64 noundef %103, ptr noundef %10) #20
  %105 = load i64, ptr %16, align 8
  %106 = load i64, ptr %19, align 8
  %107 = sub i64 %105, %106
  %108 = load ptr, ptr %17, align 8
  %109 = getelementptr inbounds %struct._zend_mm_heap, ptr %108, i32 0, i32 2
  %110 = load i64, ptr %109, align 8
  %111 = add i64 %110, %107
  store i64 %111, ptr %109, align 8
  %112 = load ptr, ptr %15, align 8
  ret ptr %112
}