; Function Attrs: nounwind uwtable
define internal noundef ptr @tracked_realloc(ptr noundef %0, i64 noundef %1) #0 {
  %3 = alloca %struct._zval_struct, align 8
  %4 = load ptr, ptr @alloc_globals.0, align 8
  %.not = icmp eq ptr %0, null
  br i1 %.not, label %13, label %5

5:                                                ; preds = %2
  %6 = ptrtoint ptr %0 to i64
  %7 = lshr i64 %6, 3
  %8 = getelementptr inbounds i8, ptr %4, i64 384
  %9 = load ptr, ptr %8, align 8
  %10 = tail call ptr @zend_hash_index_find(ptr noundef %9, i64 noundef %7) #35
  %11 = icmp ne ptr %10, null
  tail call void @llvm.assume(i1 %11)
  %12 = load i64, ptr %10, align 8
  br label %13

13:                                               ; preds = %5, %2
  %.040 = phi ptr [ %10, %5 ], [ null, %2 ]
  %.0 = phi i64 [ %12, %5 ], [ 0, %2 ]
  %14 = icmp ult i64 %.0, %1
  br i1 %14, label %15, label %27

15:                                               ; preds = %13
  %16 = sub i64 %1, %.0
  %17 = getelementptr inbounds i8, ptr %4, i64 288
  %18 = load i64, ptr %17, align 8
  %19 = getelementptr inbounds i8, ptr %4, i64 16
  %20 = load i64, ptr %19, align 8
  %21 = sub i64 %18, %20
  %22 = icmp ugt i64 %16, %21
  br i1 %22, label %23, label %27

23:                                               ; preds = %15
  %24 = getelementptr inbounds i8, ptr %4, i64 296
  %25 = load i32, ptr %24, align 8
  %.not44 = icmp eq i32 %25, 0
  br i1 %.not44, label %26, label %27

26:                                               ; preds = %23
  tail call fastcc void @zend_mm_safe_error(ptr noundef nonnull %4, ptr noundef nonnull @.str.5, i64 noundef %18, i64 noundef %16) #34
  unreachable

27:                                               ; preds = %15, %23, %13
  %.not45 = icmp eq ptr %.040, null
  br i1 %.not45, label %31, label %28

28:                                               ; preds = %27
  %29 = getelementptr inbounds i8, ptr %4, i64 384
  %30 = load ptr, ptr %29, align 8
  tail call void @zend_hash_del_bucket(ptr noundef %30, ptr noundef nonnull %.040) #35
  br label %31

31:                                               ; preds = %28, %27
  %32 = tail call ptr @realloc(ptr noundef %0, i64 noundef %1) #43
  %33 = icmp ne ptr %32, null
  %.not.i = icmp eq i64 %1, 0
  %34 = or i1 %.not.i, %33
  br i1 %34, label %__zend_realloc.exit, label %35

35:                                               ; preds = %31
  tail call fastcc void @zend_out_of_memory() #34
  unreachable

__zend_realloc.exit:                              ; preds = %31
  %36 = ptrtoint ptr %32 to i64
  %37 = lshr i64 %36, 3
  %38 = and i64 %36, -8
  %39 = inttoptr i64 %38 to ptr
  %40 = icmp eq ptr %32, %39
  tail call void @llvm.assume(i1 %40)
  store i64 %1, ptr %3, align 8
  %41 = getelementptr inbounds i8, ptr %3, i64 8
  store i32 4, ptr %41, align 8
  %42 = getelementptr inbounds i8, ptr %4, i64 384
  %43 = load ptr, ptr %42, align 8
  %44 = call ptr @zend_hash_index_add_new(ptr noundef %43, i64 noundef %37, ptr noundef nonnull %3) #35
  %45 = sub i64 %1, %.0
  %46 = getelementptr inbounds i8, ptr %4, i64 16
  %47 = load i64, ptr %46, align 8
  %48 = add i64 %45, %47
  store i64 %48, ptr %46, align 8
  ret ptr %32
}